target datalayout = "e-m:e-p270:32:32-p271:32:32-p272:64:64-i64:64-i128:128-f80:128-n8:16:32:64-S128"
target triple = "x86_64-pc-linux-gnu"

%class.QString = type { %struct.QArrayDataPointer.0 }
%struct.QArrayDataPointer.0 = type { ptr, ptr, i64 }
%class.PrefsItem = type <{ %class.ModelHelperTreeItem, ptr, ptr, %class.QString, %class.QString, i8, [7 x i8] }>
%class.ModelHelperTreeItem = type { ptr, ptr, %class.QList }
%class.QList = type { %struct.QArrayDataPointer }
%struct.QArrayDataPointer = type { ptr, ptr, i64 }

; Function Attrs: mustprogress null_pointer_is_valid sspstrong uwtable
define noundef i32 @_ZNK9PrefsItem11getPrefTypeEv(ptr noundef align 8 dereferenceable_or_null(105) %0) #0 align 2 {
  %2 = alloca i32, align 4
  %3 = alloca ptr, align 8
  store ptr %0, ptr %3, align 8
  %4 = load ptr, ptr %3, align 8
  %5 = getelementptr inbounds nuw %class.PrefsItem, ptr %4, i32 0, i32 1
  %6 = load ptr, ptr %5, align 8
  %7 = icmp eq ptr %6, null
  br i1 %7, label %8, label %9

8:                                                ; preds = %1
  store i32 0, ptr %2, align 4
  br label %13

9:                                                ; preds = %1
  %10 = getelementptr inbounds nuw %class.PrefsItem, ptr %4, i32 0, i32 1
  %11 = load ptr, ptr %10, align 8
  %12 = call i32 @prefs_get_type(ptr noundef %11)
  store i32 %12, ptr %2, align 4
  br label %13

13:                                               ; preds = %9, %8
  %14 = load i32, ptr %2, align 4
  ret i32 %14
}