; Function Attrs: mustprogress null_pointer_is_valid sspstrong uwtable
define noundef i32 @_ZNK9PrefsItem11getPrefTypeEv(ptr noundef readonly align 8 captures(none) dereferenceable_or_null(105) %0) local_unnamed_addr #0 align 2 {
  %2 = getelementptr inbounds nuw i8, ptr %0, i64 40
  %3 = load ptr, ptr %2, align 8
  %4 = icmp eq ptr %3, null
  br i1 %4, label %7, label %5

5:                                                ; preds = %1
  %6 = tail call i32 @prefs_get_type(ptr noundef nonnull %3)
  br label %7

7:                                                ; preds = %1, %5
  %.0 = phi i32 [ %6, %5 ], [ 0, %1 ]
  ret i32 %.0
}